target datalayout = "e-m:e-p270:32:32-p271:32:32-p272:64:64-i64:64-i128:128-f80:128-n8:16:32:64-S128"
target triple = "x86_64-unknown-linux-gnu"

%"struct.icu_75::CollationTailoring" = type { %"class.icu_75::SharedObject", ptr, ptr, %"class.icu_75::UnicodeString", %"class.icu_75::Locale", [4 x i8], ptr, ptr, ptr, ptr, ptr, ptr, ptr, %"struct.icu_75::UInitOnce" }
%"class.icu_75::SharedObject" = type { %"class.icu_75::UObject", i32, %"struct.std::atomic", ptr }
%"class.icu_75::UObject" = type { ptr }
%"struct.std::atomic" = type { %"struct.std::__atomic_base" }
%"struct.std::__atomic_base" = type { i32 }
%"class.icu_75::UnicodeString" = type { %"class.icu_75::Replaceable", %"union.icu_75::UnicodeString::StackBufferOrFields" }
%"class.icu_75::Replaceable" = type { %"class.icu_75::UObject" }
%"union.icu_75::UnicodeString::StackBufferOrFields" = type { %struct.anon.0, [32 x i8] }
%struct.anon.0 = type { i16, i32, i32, ptr }
%"class.icu_75::Locale" = type <{ %"class.icu_75::UObject", [12 x i8], [6 x i8], [4 x i8], [2 x i8], i32, [4 x i8], ptr, [157 x i8], [3 x i8], ptr, i8, [7 x i8] }>
%"struct.icu_75::UInitOnce" = type { %"struct.std::atomic", i32 }

; Function Attrs: mustprogress nounwind uwtable
define noundef i32 @_ZNK6icu_7518CollationTailoring13getUCAVersionEv(ptr noundef nonnull align 8 dereferenceable(400) %this) #1 align 2 {
entry:
  %this.addr = alloca ptr, align 8
  store ptr %this, ptr %this.addr, align 8
  %this1 = load ptr, ptr %this.addr, align 8
  %version = getelementptr inbounds %"struct.icu_75::CollationTailoring", ptr %this1, i32 0, i32 5
  %arrayidx = getelementptr inbounds [4 x i8], ptr %version, i64 0, i64 1
  %0 = load i8, ptr %arrayidx, align 1
  %conv = zext i8 %0 to i32
  %shl = shl i32 %conv, 4
  %version2 = getelementptr inbounds %"struct.icu_75::CollationTailoring", ptr %this1, i32 0, i32 5
  %arrayidx3 = getelementptr inbounds [4 x i8], ptr %version2, i64 0, i64 2
  %1 = load i8, ptr %arrayidx3, align 2
  %conv4 = zext i8 %1 to i32
  %shr = ashr i32 %conv4, 6
  %or = or i32 %shl, %shr
  ret i32 %or
}