; Function Attrs: mustprogress nofree norecurse nosync nounwind willreturn memory(argmem: read) uwtable
define noundef i32 @_ZNK6icu_7518CollationTailoring13getUCAVersionEv(ptr nocapture noundef nonnull readonly align 8 dereferenceable(400) %this) local_unnamed_addr #6 align 2 {
entry:
  %arrayidx = getelementptr inbounds i8, ptr %this, i64 329
  %0 = load i8, ptr %arrayidx, align 1
  %conv = zext i8 %0 to i32
  %shl = shl nuw nsw i32 %conv, 4
  %arrayidx3 = getelementptr inbounds i8, ptr %this, i64 330
  %1 = load i8, ptr %arrayidx3, align 2
  %2 = lshr i8 %1, 6
  %shr = zext nneg i8 %2 to i32
  %or = or disjoint i32 %shl, %shr
  ret i32 %or
}